target datalayout = "e-m:e-p270:32:32-p271:32:32-p272:64:64-i64:64-i128:128-f80:128-n8:16:32:64-S128"
target triple = "x86_64-pc-linux-gnu"

@.str = private unnamed_addr constant [26 x i8] c"Parameter '%s' is invalid\00", align 1
@.str.1 = private unnamed_addr constant [9 x i8] c"scancode\00", align 1
@.str.2 = private unnamed_addr constant [1 x i8] zeroinitializer, align 1

; Function Attrs: nounwind uwtable
define hidden ptr @SDL_GetScancodeName_REAL(i32 noundef %0) #0 {
  %2 = alloca ptr, align 8
  %3 = alloca i32, align 4
  %4 = alloca ptr, align 8
  %5 = alloca i32, align 4
  store i32 %0, ptr %3, align 4
  call void @llvm.lifetime.start.p0(i64 8, ptr %4) #4
  %6 = load i32, ptr %3, align 4
  %7 = icmp slt i32 %6, 0
  br i1 %7, label %11, label %8

8:                                                ; preds = %1
  %9 = load i32, ptr %3, align 4
  %10 = icmp uge i32 %9, 512
  br i1 %10, label %11, label %13

11:                                               ; preds = %8, %1
  %12 = call zeroext i1 (ptr, ...) @SDL_SetError_REAL(ptr noundef @.str, ptr noundef @.str.1)
  store ptr @.str.2, ptr %2, align 8
  store i32 1, ptr %5, align 4
  br label %23

13:                                               ; preds = %8
  %14 = load i32, ptr %3, align 4
  %15 = zext i32 %14 to i64
  %16 = getelementptr inbounds nuw [512 x ptr], ptr @SDL_scancode_names, i64 0, i64 %15
  %17 = load ptr, ptr %16, align 8
  store ptr %17, ptr %4, align 8
  %18 = load ptr, ptr %4, align 8
  %19 = icmp ne ptr %18, null
  br i1 %19, label %21, label %20

20:                                               ; preds = %13
  store ptr @.str.2, ptr %4, align 8
  br label %21

21:                                               ; preds = %20, %13
  %22 = load ptr, ptr %4, align 8
  store ptr %22, ptr %2, align 8
  store i32 1, ptr %5, align 4
  br label %23

23:                                               ; preds = %21, %11
  call void @llvm.lifetime.end.p0(i64 8, ptr %4) #4
  %24 = load ptr, ptr %2, align 8
  ret ptr %24
}