; Function Attrs: nounwind uwtable
define hidden nonnull ptr @SDL_GetScancodeName_REAL(i32 noundef %0) local_unnamed_addr #0 {
  %2 = icmp ugt i32 %0, 511
  br i1 %2, label %3, label %5

3:                                                ; preds = %1
  %4 = tail call zeroext i1 (ptr, ...) @SDL_SetError_REAL(ptr noundef nonnull @.str, ptr noundef nonnull @.str.1) #5
  br label %9

5:                                                ; preds = %1
  %6 = zext nneg i32 %0 to i64
  %7 = getelementptr inbounds nuw [512 x ptr], ptr @SDL_scancode_names, i64 0, i64 %6
  %8 = load ptr, ptr %7, align 8
  %.not = icmp eq ptr %8, null
  %spec.store.select = select i1 %.not, ptr @.str.2, ptr %8
  br label %9

9:                                                ; preds = %5, %3
  %.0 = phi ptr [ @.str.2, %3 ], [ %spec.store.select, %5 ]
  ret ptr %.0
}